(dp0
S'comment'
p1
(lp2
S'blended with 2956, center is 2860; p : ONLY 1 GALAXY : ONLY 1 GALAXY : ONLY 1 GALAXY : ONLY 1 GALAXY'
p3
aS'center is 1242, original name = TGS393Z082 : VIRIAL AND CUSTOM INCLUDE MISMATCH'
p4
aS'strong, I measure center at 1010, near NGC4536 - see Lya:1582; p : VIRIAL AND CUSTOM INCLUDE MISMATCH : VIRIAL AND CUSTOM INCLUDE MISMATCH : VIRIAL AND CUSTOM INCLUDE MISMATCH'
p5
aS'Lya labeled at 3481, I measure 3446. Lots of large galaxies around : VIRIAL AND CUSTOM INCLUDE MISMATCH : VIRIAL AND CUSTOM INCLUDE MISMATCH : VIRIAL AND CUSTOM INCLUDE MISMATCH : VIRIAL AND CUSTOM INCLUDE MISMATCH'
p6
aS'weak, labeled d:X?, center is 4303 : NO GALAXIES : NO GALAXIES : NO GALAXIES : NO GALAXIES'
p7
aS'center is 935 : VIRIAL AND CUSTOM INCLUDE MISMATCH : VIRIAL AND CUSTOM INCLUDE MISMATCH : VIRIAL AND CUSTOM INCLUDE MISMATCH : VIRIAL AND CUSTOM INCLUDE MISMATCH'
p8
aS'center is 1177, two large galaxies very nearby: NGC3511 and NGC3513 : VIRIAL AND CUSTOM INCLUDE MISMATCH : VIRIAL AND CUSTOM INCLUDE MISMATCH : VIRIAL AND CUSTOM INCLUDE MISMATCH : VIRIAL AND CUSTOM INCLUDE MISMATCH'
p9
aS'd:Lya labeled at 1625, I measure 1607 : NO GALAXIES : ONLY 1 GALAXY : ONLY 1 GALAXY : ONLY 1 GALAXY'
p10
aS'd:Lya & Lya labeled at 1988 - I measure 1495 center, near NGC4517, 3C273.0; p : VIRIAL AND CUSTOM INCLUDE MISMATCH : VIRIAL AND CUSTOM INCLUDE MISMATCH : VIRIAL AND CUSTOM INCLUDE MISMATCH'
p11
aS'center is 1280, only HIPASSJ0608-63 at 1554 km/s with b = 736 kpc : NO GALAXIES : ONLY 1 GALAXY : ONLY 1 GALAXY : ONLY 1 GALAXY'
p12
aS'Lya labeled at 2258, d:Lya at 2283, center is 2266 : ONLY 1 GALAXY : ONLY 1 GALAXY : ONLY 1 GALAXY : NO GALAXIES'
p13
aS'center is 5655, extremely weak : ONLY 1 GALAXY : ONLY 1 GALAXY : ONLY 1 GALAXY : ONLY 1 GALAXY'
p14
aS'center is 754 : VIRIAL AND CUSTOM INCLUDE MISMATCH : VIRIAL AND CUSTOM INCLUDE MISMATCH : VIRIAL AND CUSTOM INCLUDE MISMATCH : VIRIAL AND CUSTOM INCLUDE MISMATCH'
p15
aS'weak, crowded field, center is 853; p : VIRIAL AND CUSTOM INCLUDE MISMATCH : VIRIAL AND CUSTOM INCLUDE MISMATCH : VIRIAL AND CUSTOM INCLUDE MISMATCH'
p16
aS'STIS only, center is 2103 ; p : VIRIAL AND CUSTOM INCLUDE MISMATCH : VIRIAL AND CUSTOM INCLUDE MISMATCH : VIRIAL AND CUSTOM INCLUDE MISMATCH'
p17
aS'DLA, bit far away, 1125, 1449, 2971, and 3040 Lya and AGN-Ly series markers over nothing, near NGC4260 & many other galaxies, center is 1903; p : VIRIAL AND CUSTOM INCLUDE MISMATCH : VIRIAL AND CUSTOM INCLUDE MISMATCH : VIRIAL AND CUSTOM INCLUDE MISMATCH : VIRIAL AND CUSTOM INCLUDE MISMATCH'
p18
aS'Lya labeled at 1313, d:Lya at 1314, center is 1318 : VIRIAL AND CUSTOM INCLUDE MISMATCH : VIRIAL AND CUSTOM INCLUDE MISMATCH : VIRIAL AND CUSTOM INCLUDE MISMATCH : VIRIAL AND CUSTOM INCLUDE MISMATCH'
p19
aS'd:Lya labeled at 8246, Lya at 8263 _ I measure 8253, no galaxy within 2000 kpc and 1000 km/s : NO GALAXIES : NO GALAXIES : NO GALAXIES : NO GALAXIES'
p20
aS'center is 4954. several galaxies with b>500 kpc : NO GALAXIES : NO GALAXIES : NO GALAXIES : ONLY 1 GALAXY'
p21
aS'center is 1842, very weak : NO GALAXIES : ONLY 1 GALAXY : ONLY 1 GALAXY : ONLY 1 GALAXY'
p22
aS'center is 8971, 2dFGRSS357Z063 appears to be another name for the same galaxy : VIRIAL AND CUSTOM INCLUDE MISMATCH : VIRIAL AND CUSTOM INCLUDE MISMATCH : VIRIAL AND CUSTOM INCLUDE MISMATCH'
p23
aS'very weak, center is 1348 : VIRIAL AND CUSTOM INCLUDE MISMATCH : VIRIAL AND CUSTOM INCLUDE MISMATCH : VIRIAL AND CUSTOM INCLUDE MISMATCH : VIRIAL AND CUSTOM INCLUDE MISMATCH'
p24
aS'f:Lya labeled at 1740, I measure 1732 : VIRIAL AND CUSTOM INCLUDE MISMATCH : VIRIAL AND CUSTOM INCLUDE MISMATCH : VIRIAL AND CUSTOM INCLUDE MISMATCH : VIRIAL AND CUSTOM INCLUDE MISMATCH'
p25
aS'Lya marked at 7205, center is 7194 : NEEDS TO BE IDENTIFIED : NO GALAXIES : NO GALAXIES : NO GALAXIES : NO GALAXIES'
p26
aS'Lya marked 705, center is 694 ; ambiguous = other nearby large galaxies: NGC5866, KUG1513+566, NGC5879 : VIRIAL AND CUSTOM INCLUDE MISMATCH : VIRIAL AND CUSTOM INCLUDE MISMATCH : VIRIAL AND CUSTOM INCLUDE MISMATCH'
p27
aS'center is 748 : ONLY 1 GALAXY : ONLY 1 GALAXY : ONLY 1 GALAXY : ONLY 1 GALAXY'
p28
aS'center is 1449 : NO GALAXIES : ONLY 1 GALAXY : ONLY 1 GALAXY : ONLY 1 GALAXY'
p29
aS'center is 6164 : NO GALAXIES : NO GALAXIES : NO GALAXIES : NO GALAXIES'
p30
aS'center is 1526 : NO GALAXIES : NO GALAXIES : NO GALAXIES : NO GALAXIES'
p31
aS'Lya labeled at 1961 _ I measure 1951, looks blended : VIRIAL AND CUSTOM INCLUDE MISMATCH'
p32
aS'center is 4861 : NO GALAXIES : NO GALAXIES'
p33
aS'center is 794'
p34
aS'center is 1209'
p35
aS'center is 2925 : ONLY 1 GALAXY : ONLY 1 GALAXY'
p36
aS'center is 863 : VIRIAL VS CUSTOM RESULT MISMATCH : VIRIAL AND CUSTOM INCLUDE MISMATCH'
p37
aS'center is 1128'
p38
aS'center is 4050 : ONLY 1 GALAXY : ONLY 1 GALAXY'
p39
aS'center is 2251 : NO GALAXIES : NO GALAXIES'
p40
aS'center is 1123'
p41
aS'center is 623'
p42
aS'center is 679 : VIRIAL AND CUSTOM INCLUDE MISMATCH : VIRIAL AND CUSTOM INCLUDE MISMATCH'
p43
aS'center is 1044 : VIRIAL AND CUSTOM INCLUDE MISMATCH'
p44
aS'center is 2105 : ONLY 1 GALAXY : VIRIAL AND CUSTOM INCLUDE MISMATCH'
p45
aS'center is 1400, very weak : ONLY 1 GALAXY : ONLY 1 GALAXY'
p46
aS'center is 930 : VIRIAL AND CUSTOM INCLUDE MISMATCH : VIRIAL AND CUSTOM INCLUDE MISMATCH'
p47
aS'center is 2175 : ONLY 1 GALAXY : ONLY 1 GALAXY'
p48
aS'center is 640, very weak : VIRIAL AND CUSTOM INCLUDE MISMATCH : VIRIAL AND CUSTOM INCLUDE MISMATCH'
p49
aS'center is 2190 : NO GALAXIES : ONLY 1 GALAXY'
p50
aS'center is 4768 : NO GALAXIES : NO GALAXIES'
p51
aS'center is 1734 : ONLY 1 GALAXY : ONLY 1 GALAXY'
p52
aS'center is 4714 : VIRIAL AND CUSTOM INCLUDE MISMATCH'
p53
aS'noisy'
p54
aS'weak : VIRIAL AND CUSTOM INCLUDE MISMATCH'
p55
aS'blended with 1123, 1188 - errors are way too small?'
p56
aS'noisy : VIRIAL AND CUSTOM INCLUDE MISMATCH'
p57
aS'blended with 1633 : VIRIAL AND CUSTOM INCLUDE MISMATCH'
p58
aS'blended with 5178 : NO GALAXIES'
p59
aS'hard to fit continuum : VIRIAL AND CUSTOM INCLUDE MISMATCH'
p60
aS'hard to fit cont : VIRIAL AND CUSTOM INCLUDE MISMATCH'
p61
aS'very narrow, weak : VIRIAL AND CUSTOM INCLUDE MISMATCH'
p62
aS'weak : NO GALAXIES'
p63
aS'noisy'
p64
asS'PA'
p65
(lp66
S'5'
p67
aS'145'
p68
aS'83'
p69
aS'70'
p70
aS'x'
p71
aS'112'
p72
aS'120'
p73
aS'40'
p74
aS'83'
p75
aS'-99'
p76
ag71
aS'87'
p77
aS'76'
p78
aS'135'
p79
aS'120'
p80
aS'45'
p81
aS'-99'
p82
ag71
aS'15'
p83
aS'47'
p84
aS'115'
p85
aS'-99'
p86
aS'105'
p87
ag71
aS'155'
p88
aS'-99'
p89
aS'-99'
p90
ag71
ag71
aS'150'
p91
ag71
aS'148'
p92
aS'145'
p93
aS'22'
p94
aS'97'
p95
aS'48'
p96
aS'60'
p97
ag71
aS'83'
p98
aS'40'
p99
aS'83'
p100
aS'100'
p101
aS'170'
p102
aS'-99'
p103
aS'60'
p104
aS'109'
p105
aS'110'
p106
aS'121'
p107
ag71
aS'115'
p108
aS'129'
p109
aS'100'
p110
aS'47'
p111
aS'45'
p112
aS'107'
p113
aS'28'
p114
ag71
aS'115'
p115
aS'80'
p116
aS'70'
p117
ag71
aS'57'
p118
asS'RC3type'
p119
(lp120
S'.S..6*.'
p121
aS'.SBS3..'
p122
aS'.SAS6*/'
p123
aS'.S..3*/'
p124
ag71
aS'.I..9..'
p125
aS'.SBT5..'
p126
aS'.LAT0?.'
p127
aS'.SAS6*/'
p128
ag71
ag71
aS'       '
p129
ag71
aS'.SAS2*/'
p130
aS'.SB.5?/'
p131
aS'.SBS1..'
p132
aS'.SXS7*.'
p133
ag71
aS'.S..3./'
p134
aS'.SBS9..'
p135
ag71
aS'.I..9*.'
p136
ag71
ag71
aS'.SAS5*/'
p137
ag71
ag71
ag71
ag71
aS'.SAS5*.'
p138
ag71
aS'.SXT6..'
p139
aS'.SBS3..'
p140
aS'.S..7..'
p141
aS'.LAR+..'
p142
aS'.SAT4P.'
p143
aS'.S..6?/'
p144
ag71
aS'.SAS6*/'
p145
aS'.SBT5..'
p146
aS'.SBS6./'
p147
aS'.E.3...'
p148
aS'.S?....'
p149
ag71
aS'.SBS6P.'
p150
ag71
aS'.IBS9..'
p151
ag71
ag71
ag71
ag71
aS'.E.3...'
p152
aS'.SBS9..'
p153
aS'.LAS-*.'
p154
aS'.SBS1..'
p155
aS'.S?....'
p156
ag71
aS'.L..0P/'
p157
aS'dE.3...'
p158
aS'.SA.1*/'
p159
ag71
aS'.S..7./'
p160
asS'RA_gal'
p161
(lp162
S'110.64454'
p163
aS'41.57937'
p164
aS'188.18996'
p165
aS'256.98946'
p166
ag71
aS'183.07819'
p167
aS'165.942'
p168
aS'39.54871'
p169
aS'188.18996'
p170
aS'158.72'
p171
ag71
aS'29.79728'
p172
aS'228.1827'
p173
aS'0.81204'
p174
aS'183.7685'
p175
aS'184.84267'
p176
aS'197.44792'
p177
ag71
aS'302.41312'
p178
aS'350.20458'
p179
aS'359.90754'
p180
aS'109.13343'
p181
aS'202.60509'
p182
ag71
aS'228.97404'
p183
aS'158.72'
p184
aS'158.72'
p185
ag71
ag71
aS'137.39045'
p186
ag71
aS'188.99019'
p187
aS'41.57937'
p188
aS'195.77465'
p189
aS'186.86045'
p190
aS'209.05'
p191
aS'324.8615'
p192
ag71
aS'188.18996'
p193
aS'154.97897'
p194
aS'167.87904'
p195
aS'170.27854'
p196
aS'236.41436'
p197
aS'158.72'
p198
aS'245.24233'
p199
aS'128.39854'
p200
aS'150.00042'
p201
aS'151.16063'
p202
ag71
aS'140.01111'
p203
aS'33.31582'
p204
aS'170.27854'
p205
aS'350.20458'
p206
aS'65.49508'
p207
aS'67.91471'
p208
aS'69.90367'
p209
ag71
aS'67.851'
p210
aS'152.11708'
p211
aS'170.10924'
p212
ag71
aS'228.01018'
p213
asS'likelihood_cus'
p214
(lp215
S'0.125980951'
p216
aS'1.832855366'
p217
aS'0.047096457'
p218
aS'0.025718835'
p219
aS'-99'
p220
aS'0.133626775'
p221
aS'1.426865139'
p222
aS'7.82E-166'
p223
aS'0.031465771'
p224
aS'-99.99'
p225
aS'-99'
p226
aS'1.13E-06'
p227
aS'0'
p228
aS'0.108184222'
p229
aS'0.07590582'
p230
aS'0.03713455'
p231
aS'1.34E-19'
p232
aS'-99'
p233
aS'3.36E-07'
p234
ag228
aS'0.2566709'
p235
ag228
ag228
aS'-99'
p236
aS'0.25766593'
p237
aS'-99.99'
p238
aS'-99.99'
p239
aS'-99'
p240
aS'-99'
p241
aS'0.000758799'
p242
aS'-99'
p243
aS'0.095085314'
p244
aS'1.482920818'
p245
aS'2.61E-07'
p246
aS'0.007084573'
p247
aS'0.686687237'
p248
aS'1.552827583'
p249
aS'-99'
p250
aS'1.560957998'
p251
aS'0.013294733'
p252
aS'1.64E-05'
p253
aS'0.191772889'
p254
aS'5.38E-10'
p255
aS'-99.99'
p256
aS'3.35E-19'
p257
ag228
aS'8.83E-28'
p258
aS'5.49E-197'
p259
aS'-99'
p260
ag228
aS'1.13E-06'
p261
aS'0.710257578'
p262
ag228
aS'0.128540594'
p263
aS'0.004293386'
p264
aS'2.40E-05'
p265
aS'-99'
p266
aS'1.14E-141'
p267
ag228
aS'1.74E-17'
p268
aS'-99'
p269
aS'0.196847828'
p270
asS'Dec_agn'
p271
(lp272
S'71.34333333333333'
p273
aS'-30.123055555555556'
p274
aS'2.0525'
p275
aS'60.74138888888889'
p276
aS'43.03556'
p277
aS'36.96111111111111'
p278
aS'-23.491944444444446'
p279
aS'-18.864166666666666'
p280
aS'1.256388888888889'
p281
aS'-64.60583333333334'
p282
aS'-17.5819444444'
p283
aS'0.39472222222222225'
p284
aS'57.9025'
p285
aS'16.163611111111113'
p286
aS'14.053611111111111'
p287
aS'6.643888888888889'
p288
aS'-10.555555555555555'
p289
aS'55.37556'
p290
aS'-48.83166666666666'
p291
aS'-44.235'
p292
aS'-30.6275'
p293
aS'74.1361111111111'
p294
aS'31.325277777777778'
p295
aS'68.16833'
p296
aS'56.82222222222222'
p297
aS'57.603611111111114'
p298
aS'5.2444444444444445'
p299
aS'36.33'
p300
aS'33.895'
p301
aS'32.608333333333334'
p302
aS'-38.47778'
p303
aS'26.693333333333335'
p304
aS'-30.513333333333332'
p305
aS'3.958611111111111'
p306
aS'12.051944444444445'
p307
aS'4.594722222222222'
p308
aS'2.7683333333333335'
p309
aS'24.70556'
p310
aS'-0.5261111111111111'
p311
aS'47.040277777777774'
p312
aS'53.030833333333334'
p313
aS'3.3005555555555555'
p314
aS'28.465555555555557'
p315
aS'3.4144444444444444'
p316
aS'65.71972222222222'
p317
aS'24.994444444444444'
p318
aS'5.216666666666667'
p319
aS'59.73722222222222'
p320
aS'25.25639'
p321
aS'27.330833333333334'
p322
aS'-7.622222222222222'
p323
aS'3.4297222222222223'
p324
aS'-40.680277777777775'
p325
aS'-57.20055555555555'
p326
aS'-53.61555555555555'
p327
aS'-52.97972222222222'
p328
aS'-61.79972222'
p329
aS'-53.191944444444445'
p330
aS'-52.805'
p331
aS'4.223055555555556'
p332
aS'-41.87333333'
p333
aS'1.4794444444444443'
p334
asS'Na'
p335
(lp336
F92500000000000.0
aF216000000000000.0
aF133000000000000.0
aF31900000000000.0
aF4930000000000.0
aF57000000000000.0
aF239000000000000.0
aF5830000000000.0
aF36000000000000.0
aF13100000000000.0
aF16200000000000.0
aF8840000000000.0
aF30000000000000.0
aF31000000000000.0
aF22100000000000.0
aF1110000000000000.0
aF122000000000000.0
aF14700000000000.0
aF81500000000000.0
aF6980000000000.0
aF411000000000000.0
aF4640000000000.0
aF33500000000000.0
aF41100000000000.0
aF91700000000000.0
aF32800000000000.0
aF23700000000000.0
aF72500000000000.0
aF42100000000000.0
aF105000000000000.0
aF7790000000000.0
aF82700000000000.0
aF19000000000000.0
aF9300000000000.0
aF22300000000000.0
aF19500000000000.0
aF238000000000000.0
aF11100000000000.0
aF184000000000000.0
aF12400000000000.0
aF95400000000000.0
aF83000000000000.0
aF16300000000000.0
aF6070000000000.0
aF101000000000000.0
aF63500000000000.0
aF7850000000000.0
aF34000000000000.0
aF26600000000000.0
aF12800000000000.0
aF224000000000000.0
aF57100000000000.0
aF6810000000000.0
aF117000000000000.0
aF17100000000000.0
aF59100000000000.0
aF26000000000000.0
aF18200000000000.0
aF32700000000000.0
aF6280000000000.0
aF21800000000000.0
aF187000000000000.0
asS'final_morphology'
p337
(lp338
S'Scd:'
p339
aS"(R'_1:)SB(r'l)bSy1"
p340
aS'SA(s)cd:_sp_HII'
p341
aS'Sb:_sp'
p342
ag71
aS'IB(s)m_V'
p343
aS'SB(s)c_HII'
p344
aS'SA(rs)0^0^?'
p345
aS'SA(s)cd:_sp_HII'
p346
aS'dSph'
p347
ag71
aS'Compact'
p348
ag71
aS'SA(s)ab:_sp_LINER'
p349
aS'SBc?_sp;LINER_HII'
p350
aS'SB(s)a;Sy_LINER'
p351
aS'SAB(s)d:_Sy2'
p352
ag71
aS'Sb'
p353
aS'SAB(s)m'
p354
aS'E'
p355
aS'Im:'
p356
aS'Extended_Src_[SDSS]'
p357
ag71
aS'SA(s)c:_sp_HII:'
p358
aS'dSph'
p359
aS'dSph'
p360
ag71
ag71
aS'SA(s)c:'
p361
ag71
aS'SAB(rs)cd_HII'
p362
aS"(R'_1:)SB(r'l)bSy1"
p363
aS'Sd'
p364
aS'SA(r)0+;LINER_HII'
p365
aS'SA(rs)bc_pec_HII'
p366
aS'Sd'
p367
ag71
aS'SA(s)cd:_sp_HII'
p368
aS'SB(rs)c_HII'
p369
aS'SB(s)cd_HII'
p370
aS'E3'
p371
aS'S?'
p372
aS'dSph'
p373
aS'SB(s)cd_pec'
p374
ag71
aS'ImIV-V'
p375
aS'Sd(f)'
p376
ag71
ag71
aS'Sb'
p377
aS'E3'
p378
aS'SAB(s)m'
p379
aS'SA0^-'
p380
aS"(R')SAB(rs)a"
p381
aS'S?'
p382
ag71
aS'S0^0^_pec_sp'
p383
aS'E;dSph'
p384
aS'SAa:_sp_HII'
p385
ag71
aS'Sd'
p386
asS'include_custom'
p387
(lp388
S'TRUE'
p389
aS'TRUE'
p390
aS'TRUE'
p391
aS'TRUE'
p392
aS'FALSE'
p393
aS'TRUE'
p394
aS'FALSE'
p395
aS'FALSE'
p396
aS'TRUE'
p397
aS'FALSE'
p398
aS'FALSE'
p399
aS'FALSE'
p400
aS'FALSE'
p401
aS'TRUE'
p402
aS'FALSE'
p403
aS'FALSE'
p404
aS'FALSE'
p405
aS'FALSE'
p406
aS'FALSE'
p407
aS'FALSE'
p408
aS'TRUE'
p409
aS'FALSE'
p410
aS'FALSE'
p411
aS'FALSE'
p412
aS'TRUE'
p413
aS'FALSE'
p414
aS'FALSE'
p415
aS'FALSE'
p416
aS'FALSE'
p417
aS'FALSE'
p418
aS'FALSE'
p419
aS'TRUE'
p420
aS'TRUE'
p421
aS'FALSE'
p422
aS'FALSE'
p423
aS'TRUE'
p424
aS'TRUE'
p425
aS'FALSE'
p426
aS'TRUE'
p427
aS'TRUE'
p428
aS'FALSE'
p429
aS'TRUE'
p430
aS'FALSE'
p431
aS'FALSE'
p432
aS'FALSE'
p433
aS'FALSE'
p434
aS'FALSE'
p435
aS'FALSE'
p436
aS'FALSE'
p437
aS'FALSE'
p438
aS'FALSE'
p439
aS'TRUE'
p440
aS'FALSE'
p441
aS'TRUE'
p442
aS'FALSE'
p443
aS'FALSE'
p444
aS'FALSE'
p445
aS'FALSE'
p446
aS'FALSE'
p447
aS'FALSE'
p448
aS'FALSE'
p449
aS'TRUE'
p450
asS'virialRadius'
p451
(lp452
S'168.0401296'
p453
aS'260.5336697'
p454
aS'207.5677868'
p455
aS'217.6880449'
p456
aS'-99'
p457
aS'115.6793855'
p458
aS'147.1060956'
p459
aS'71.70431245'
p460
aS'207.5677868'
p461
aS'-99.99'
p462
aS'-99'
p463
aS'158.3963698'
p464
aS'5.72414593'
p465
aS'195.6073016'
p466
aS'150.7601229'
p467
aS'198.8282148'
p468
aS'115.6793855'
p469
aS'-99'
p470
aS'158.8403728'
p471
aS'13.58681455'
p472
aS'200.4298993'
p473
aS'63.89771317'
p474
aS'10.77182534'
p475
aS'-99'
p476
aS'260.5336697'
p477
aS'-99.99'
p478
aS'-99.99'
p479
aS'-99'
p480
aS'-99'
p481
aS'144.3386162'
p482
aS'-99'
p483
aS'148.0233932'
p484
aS'260.5336697'
p485
aS'150.7601229'
p486
aS'196.0112133'
p487
aS'195.6073016'
p488
aS'209.5309551'
p489
aS'-99'
p490
aS'207.5677868'
p491
aS'188.6821824'
p492
aS'161.4927982'
p493
aS'171.913919'
p494
aS'131.573648'
p495
aS'-99.99'
p496
aS'64.56417617'
p497
aS'42.05801054'
p498
aS'30.87395074'
p499
aS'72.96794091'
p500
aS'-99'
p501
aS'28.99554748'
p502
aS'124.7323146'
p503
aS'171.913919'
p504
aS'13.58681455'
p505
aS'168.9044133'
p506
aS'146.1862209'
p507
aS'109.9876496'
p508
aS'-99'
p509
aS'76.70151309'
p510
aS'14.89814137'
p511
aS'128.173492'
p512
aS'-99'
p513
aS'141.5470874'
p514
asS'morphology'
p515
(lp516
S'Scd:'
p517
aS"(R'_1:)SB(r'l)bSy1"
p518
aS'SA(s)cd:_sp_HII'
p519
aS'Sb:_sp'
p520
ag71
aS'IB(s)m_V'
p521
aS'SB(s)c_HII'
p522
aS'SA(rs)0^0^?'
p523
aS'SA(s)cd:_sp_HII'
p524
aS'dSph'
p525
ag71
aS'Compact'
p526
ag71
aS'SA(s)ab:_sp_LINER'
p527
aS'SBc?_sp;LINER_HII'
p528
aS'SB(s)a;Sy_LINER'
p529
aS'SAB(s)d:_Sy2'
p530
ag71
aS'Sb'
p531
aS'SAB(s)m'
p532
ag355
aS'Im:'
p533
aS'Extended_Src_[SDSS]'
p534
ag71
aS'SA(s)c:_sp_HII:'
p535
aS'dSph'
p536
aS'dSph'
p537
ag71
ag71
aS'SA(s)c:'
p538
ag71
aS'SAB(rs)cd_HII'
p539
aS"(R'_1:)SB(r'l)bSy1"
p540
aS'Sd'
p541
aS'SA(r)0+;LINER_HII'
p542
aS'SA(rs)bc_pec_HII'
p543
aS'Sd'
p544
ag71
aS'SA(s)cd:_sp_HII'
p545
aS'SB(rs)c_HII'
p546
aS'SB(s)cd_HII'
p547
aS'E3'
p548
aS'S?'
p549
aS'dSph'
p550
aS'SB(s)cd_pec'
p551
ag71
aS'ImIV-V'
p552
aS'Sd(f)'
p553
ag71
ag71
aS'Sb'
p554
aS'E3'
p555
aS'SAB(s)m'
p556
aS'SA0^-'
p557
aS"(R')SAB(rs)a"
p558
aS'S?'
p559
ag71
aS'S0^0^_pec_sp'
p560
aS'E;dSph'
p561
aS'SAa:_sp_HII'
p562
ag71
aS'Sd'
p563
asS'Lya_v'
p564
(lp565
I2870
aI1239
aI1013
aI3481
aI4303
aI966
aI1188
aI1625
aI1488
aI1279
aI2258
aI5694
aI758
aI833
aI2116
aI1903
aI1313
aI8263
aI4967
aI1795
aI8966
aI1339
aI1740
aI7205
aI706
aI754
aI1448
aI6172
aI1521
aI1961
aI4869
aI795
aI1221
aI2924
aI866
aI1124
aI4083
aI2241
aI1127
aI629
aI685
aI1049
aI2111
aI1402
aI939
aI2183
aI640
aI2198
aI4762
aI1727
aI4756
aI1471
aI1598
aI1075
aI1167
aI1512
aI5111
aI613
aI613
aI2285
aI2028
aI2051
asS'targetName'
p566
(lp567
S'1H0717+714'
p568
aS'2dFGRS_S393Z082'
p569
aS'3C273.0'
p570
aS'3C351.0'
p571
aS'3C66A'
p572
aS'CSO395'
p573
aS'H1101-232'
p574
aS'HE0238-1904'
p575
aS'HE1228+0131'
p576
aS'IRAS_Z06229-6434'
p577
aS'MRC2251-178'
p578
aS'MRK1014'
p579
aS'MRK290'
p580
aS'PG0003+158'
p581
aS'PG1211+143'
p582
aS'PG1216+069'
p583
aS'PG1302-102'
p584
aS'PG1626+554'
p585
aS'PKS2005-489'
p586
aS'RBS1795'
p587
aS'RBS2070'
p588
aS'RX_J0714.5+7408'
p589
aS'RX_J1330.8+3119'
p590
aS'RX_J1503.2+6810'
p591
aS'SBS1503+570'
p592
aS'SBS1537+577'
p593
aS'SDSSJ080838.80+051440.0'
p594
aS'SDSSJ135341.03+361948.0'
p595
aS'SDSSJ140428.30+335342.0'
p596
aS'TON1009'
p597
aS'RBS1768'
p598
aS'RX_J1236.0+2641'
p599
aS'HE0241-3043'
p600
aS'SDSSJ130524.30+035731.0'
p601
aS'MS1228.6+1219'
p602
aS'SDSSJ135726.27+043541.4'
p603
aS'RX_J2139.7+0246'
p604
aS'FBQSJ1431+2442'
p605
aS'LBQS1230-0015'
p606
aS'RX_J1017.5+4702'
p607
aS'RX_J1117.6+5301'
p608
aS'SDSSJ112224.10+031802.0'
p609
aS'RX_J1544.5+2827'
p610
aS'RX_J2043.1+0324'
p611
aS'MRK876'
p612
aS'PG0832+251'
p613
aS'PG1001+054'
p614
aS'SBS0957+599'
p615
aS'RX_J1356.4+2515'
p616
aS'SDSSJ091728.60+271951.0'
p617
aS'SDSSJ021218.32-073719.8'
p618
aS'RX_J1121.2+0326'
p619
aS'RBS2000'
p620
aS'1H0419-577'
p621
aS'HE0429-5343'
p622
aS'HE0435-5304'
p623
aS'RBS563'
p624
aS'RBS567'
p625
aS'HE0439-5254'
p626
aS'SDSSJ112005.00+041323.0'
p627
aS'QSO1500-4140'
p628
aS'SDSSJ151237.15+012846.0'
p629
asS'include_vir'
p630
(lp631
S'TRUE'
p632
aS'FALSE'
p633
aS'TRUE'
p634
aS'FALSE'
p635
aS'FALSE'
p636
aS'FALSE'
p637
aS'FALSE'
p638
aS'FALSE'
p639
aS'FALSE'
p640
aS'FALSE'
p641
aS'FALSE'
p642
aS'FALSE'
p643
aS'FALSE'
p644
aS'FALSE'
p645
aS'TRUE'
p646
aS'FALSE'
p647
aS'FALSE'
p648
aS'FALSE'
p649
aS'FALSE'
p650
aS'FALSE'
p651
aS'TRUE'
p652
aS'FALSE'
p653
aS'FALSE'
p654
aS'FALSE'
p655
aS'FALSE'
p656
aS'FALSE'
p657
aS'FALSE'
p658
aS'FALSE'
p659
aS'FALSE'
p660
aS'TRUE'
p661
aS'FALSE'
p662
aS'TRUE'
p663
aS'TRUE'
p664
aS'FALSE'
p665
aS'FALSE'
p666
aS'TRUE'
p667
aS'TRUE'
p668
aS'FALSE'
p669
aS'TRUE'
p670
aS'TRUE'
p671
aS'FALSE'
p672
aS'TRUE'
p673
aS'FALSE'
p674
aS'FALSE'
p675
aS'TRUE'
p676
aS'FALSE'
p677
aS'TRUE'
p678
aS'FALSE'
p679
aS'FALSE'
p680
aS'FALSE'
p681
aS'FALSE'
p682
aS'TRUE'
p683
aS'TRUE'
p684
aS'TRUE'
p685
aS'TRUE'
p686
aS'TRUE'
p687
aS'FALSE'
p688
aS'FALSE'
p689
aS'FALSE'
p690
aS'FALSE'
p691
aS'FALSE'
p692
aS'TRUE'
p693
asS'impact'
p694
(lp695
S'199.3421189'
p696
aS'89.38614647'
p697
aS'362.5183125'
p698
aS'459.8244486'
p699
ag71
aS'83.39865943'
p700
aS'60.29112702'
p701
aS'424.4300281'
p702
aS'209.7249045'
p703
aS'220.2801523'
p704
ag71
aS'446.1401531'
p705
aS'486.0175196'
p706
aS'197.4830029'
p707
aS'137.6710933'
p708
aS'358.7599892'
p709
aS'404.9233393'
p710
ag71
aS'473.4893349'
p711
aS'277.0447133'
p712
aS'237.2889352'
p713
aS'474.967935'
p714
aS'325.484678'
p715
ag71
aS'413.2324479'
p716
aS'72.93932335'
p717
aS'97.00121149'
p718
ag71
ag71
aS'267.1073627'
p719
ag71
aS'161.4113231'
p720
aS'175.091031'
p721
aS'425.3745127'
p722
aS'364.4888437'
p723
aS'164.5609252'
p724
aS'112.3091259'
p725
ag71
aS'109.3257324'
p726
aS'369.9468582'
p727
aS'422.3732629'
p728
aS'129.9524732'
p729
aS'376.325711'
p730
aS'209.0938428'
p731
aS'113.0831621'
p732
aS'281.7128583'
p733
aS'26.88815325'
p734
aS'480.9909951'
p735
ag71
aS'488.3983436'
p736
aS'268.1429481'
p737
aS'78.10849225'
p738
aS'22.41287639'
p739
aS'199.5270478'
p740
aS'233.2613451'
p741
aS'174.1708872'
p742
ag71
aS'451.9471558'
p743
aS'414.7945703'
p744
aS'462.7384123'
p745
ag71
aS'121.0751229'
p746
asS'cus'
p747
(lp748
S'138.74016'
p749
aS'359.9364055'
p750
aS'219.6099816'
p751
aS'243.5549219'
p752
aS'-99'
p753
aS'61.61506309'
p754
aS'103.893508'
p755
aS'21.78421447'
p756
aS'219.6099816'
p757
aS'-99.99'
p758
aS'-99'
p759
aS'122.0120322'
p760
aS'0.089442719'
p761
aS'193.0277286'
p762
aS'109.5855328'
p763
aS'200.00422'
p764
aS'61.61506309'
p765
aS'-99'
p766
aS'122.7567636'
p767
aS'0.585662019'
p768
aS'203.5233058'
p769
aS'16.955707'
p770
aS'0.353553391'
p771
aS'-99'
p772
aS'359.9364055'
p773
aS'-99.99'
p774
aS'-99.99'
p775
aS'-99'
p776
aS'-99'
p777
aS'99.69139883'
p778
aS'-99'
p779
aS'105.3070131'
p780
aS'359.9364055'
p781
aS'109.5855328'
p782
aS'193.8952681'
p783
aS'193.0277286'
p784
aS'224.150416'
p785
aS'-99'
p786
aS'219.6099816'
p787
aS'178.4797271'
p788
aS'127.2567366'
p789
aS'145.7872868'
p790
aS'81.51485754'
p791
aS'-99.99'
p792
aS'17.34252'
p793
aS'6.830519746'
p794
aS'3.488122704'
p795
aS'22.627417'
p796
aS'-99'
p797
aS'3.043189117'
p798
aS'72.58115458'
p799
aS'145.7872868'
p800
aS'0.585662019'
p801
aS'140.2961154'
p802
aS'102.4863845'
p803
aS'55.21435502'
p804
aS'-99'
p805
aS'25.22015067'
p806
aS'0.715541753'
p807
aS'77.00481154'
p808
aS'-99'
p809
aS'95.54752221'
p810
asS'Lya_W'
p811
(lp812
F343.0
aF570.0
aF376.0
aF145.0
aF24.0
aF194.0
aF633.0
aF30.0
aF144.0
aF64.0
aF80.0
aF45.0
aF134.0
aF131.0
aF105.0
aF2269.0
aF322.0
aF70.0
aF280.0
aF36.0
aF777.0
aF24.0
aF153.0
aF180.0
aF302.0
aF146.0
aF103.0
aF274.0
aF162.0
aF350.0
aF39.0
aF295.0
aF83.0
aF46.0
aF94.0
aF85.0
aF490.0
aF54.0
aF473.0
aF60.0
aF318.0
aF288.0
aF75.0
aF30.0
aF366.0
aF220.0
aF38.0
aF146.0
aF127.0
aF63.0
aF528.0
aF227.0
aF35.0
aF249.0
aF79.0
aF220.0
aF117.0
aF87.0
aF154.0
aF27.0
aF95.0
aF496.0
asS'AGNredshift'
p813
(lp814
S'0.5003'
p815
aS'0.34'
p816
aS'0.1583'
p817
aS'0.3719'
p818
aS'0.444'
p819
aS'0.169'
p820
aS'0.186'
p821
aS'0.631'
p822
aS'0.117'
p823
aS'0.1289'
p824
aS'0.0661'
p825
aS'0.163'
p826
aS'0.0296'
p827
aS'0.4509'
p828
aS'0.0804'
p829
aS'0.3313'
p830
aS'0.2784'
p831
aS'0.133'
p832
aS'0.071'
p833
aS'0.344'
p834
aS'0.165'
p835
aS'0.371'
p836
aS'0.241'
p837
aS'0.114'
p838
aS'0.3589'
p839
aS'0.0734'
p840
aS'0.361'
p841
aS'0.147'
p842
aS'0.549'
p843
aS'0.809'
p844
aS''
p845
ag845
ag845
ag845
ag845
ag845
ag845
ag845
ag845
ag845
ag845
ag845
ag845
ag845
ag845
ag845
ag845
ag845
ag845
ag845
ag845
aS'0.152'
p846
aS'0.17359'
p847
aS'0.104'
p848
aS'0.04001'
p849
aS'0.42616'
p850
aS'0.069'
p851
aS'0.243'
p852
aS'1.053'
p853
aS'0.54689'
p854
aS'0.335'
p855
aS'0.26625'
p856
asS'environment'
p857
(lp858
I1
aI9
aI15
aI5
aI0
aI11
aI6
aI1
aI30
aI1
aI0
aI1
aI3
aI14
aI15
aI39
aI8
aI0
aI1
aI1
aI7
aI2
aI6
aI0
aI16
aI1
aI1
aI0
aI0
aI4
aI0
aI18
aI9
aI1
aI110
aI21
aI1
aI0
aI13
aI8
aI9
aI11
aI2
aI1
aI2
aI1
aI8
aI1
aI0
aI1
aI6
aI25
aI4
aI15
aI7
aI4
aI0
aI5
aI4
aI4
aI0
aI11
asS'redshiftDistances'
p859
(lp860
g71
ag71
ag71
ag71
ag71
ag71
ag71
ag71
ag71
ag71
ag71
ag71
ag71
ag71
ag71
ag71
ag71
ag71
ag71
ag71
ag71
ag71
ag71
ag71
ag71
ag71
ag71
ag71
ag71
ag71
ag71
ag71
ag71
ag71
ag71
ag71
ag71
ag71
ag71
ag71
ag71
ag71
ag71
ag71
ag71
ag71
ag71
ag71
ag71
ag71
ag71
ag71
ag71
ag71
ag71
ag71
ag71
ag71
ag71
ag71
ag71
ag71
asS'galaxyName'
p861
(lp862
S'UGC03804'
p863
aS'NGC1097'
p864
aS'NGC4517'
p865
aS'NGC6310'
p866
ag71
aS'UGC07207'
p867
aS'NGC3513'
p868
aS'MCG-03-07-044'
p869
aS'NGC4517'
p870
aS'UMaDwarf'
p871
ag71
aS'PGC007511'
p872
aS'SBS1511+583'
p873
aS'NGC7814'
p874
aS'IC3061'
p875
aS'NGC4260'
p876
aS'UGCA330'
p877
ag71
aS'PGC064185'
p878
aS'NGC7582:[ZM98]0024'
p879
aS'MCG-05-01-020'
p880
aS'UGC03739'
p881
aS'SDSSJ133025.22+304141.9'
p882
ag71
aS'NGC5907'
p883
aS'UMaDwarf'
p884
aS'UMaDwarf'
p885
ag71
ag71
aS'NGC2770'
p886
ag71
aS'NGC4559'
p887
aS'NGC1097'
p888
aS'UGC08153'
p889
aS'NGC4429'
p890
aS'NGC5364'
p891
aS'UGC11785'
p892
ag71
aS'NGC4517'
p893
aS'NGC3198'
p894
aS'NGC3556'
p895
aS'NGC3640'
p896
aS'IC4582'
p897
aS'UMaDwarf'
p898
aS'NGC6140'
p899
aS'SDSSJ083335.64+250847.1'
p900
aS'UGC05373'
p901
aS'MCG+10-15-008'
p902
ag71
aS'SDSSJ092002.66+282057.4'
p903
aS'SDSSJ021315.79-073942.7'
p904
aS'NGC3640'
p905
aS'NGC7582:[ZM98]0024'
p906
aS'NGC1574'
p907
aS'NGC1617'
p908
aS'NGC1566GROUP:[KKF2005]17'
p909
ag71
aS'NGC1566GROUP:[KKF2005]18'
p910
aS'UGC05470'
p911
aS'NGC3633'
p912
ag71
aS'NGC5846:[MTT2005]321'
p913
asS'RA_agn'
p914
(lp915
S'110.47291666666666'
p916
aS'41.25333333333334'
p917
aS'187.27791666666667'
p918
aS'256.17333333333335'
p919
aS'35.665'
p920
aS'182.81083333333333'
p921
aS'165.90708333333333'
p922
aS'40.13583333333334'
p923
aS'187.70833333333334'
p924
aS'95.78166666666667'
p925
aS'343.524583333'
p926
aS'29.959166666666665'
p927
aS'233.96791666666667'
p928
aS'1.4966666666666666'
p929
aS'183.57375000000002'
p930
aS'184.83708333333334'
p931
aS'196.3875'
p932
aS'246.98417'
p933
aS'302.35583333333335'
p934
aS'328.7129166666667'
p935
aS'359.7825'
p936
aS'108.65083333333334'
p937
aS'202.72208333333333'
p938
aS'225.81875'
p939
aS'226.23166666666665'
p940
aS'234.54166666666666'
p941
aS'122.16166666666668'
p942
aS'208.42083'
p943
aS'211.11792'
p944
aS'137.27583333333334'
p945
aS'324.70708'
p946
aS'189.01666666666665'
p947
aS'40.90708333333333'
p948
aS'196.35125000000002'
p949
aS'187.80458333333334'
p950
aS'209.35958333333332'
p951
aS'324.93416666666667'
p952
aS'217.8575'
p953
aS'188.26708333333335'
p954
aS'154.37916666666666'
p955
aS'169.41875000000002'
p956
aS'170.60041666666666'
p957
aS'236.12708333333333'
p958
aS'310.77625'
p959
aS'243.48833333333334'
p960
aS'128.89916666666664'
p961
aS'151.08375'
p962
aS'150.26083333333332'
p963
aS'209.10667'
p964
aS'139.36916666666667'
p965
aS'33.07625'
p966
aS'170.30833333333334'
p967
aS'351.18625'
p968
aS'66.50291666666666'
p969
aS'67.66666666666667'
p970
aS'69.21208333333334'
p971
aS'69.62166667'
p972
aS'69.91125'
p973
aS'70.05'
p974
aS'170.02083333333334'
p975
aS'225.89125'
p976
aS'228.155'
p977
asS'include'
p978
(lp979
S'1'
p980
aS'2'
p981
ag980
ag981
ag228
ag981
ag981
ag228
aS'3'
p982
ag228
ag228
ag228
ag228
ag981
ag982
ag982
ag228
ag228
ag228
ag228
ag980
ag228
ag228
ag228
ag982
ag228
ag228
ag228
ag228
ag980
ag228
ag980
ag980
ag228
ag982
ag980
ag980
ag228
ag980
ag980
ag228
ag980
ag228
ag228
ag980
ag228
ag980
ag228
ag228
ag228
ag228
ag980
ag980
ag980
ag980
ag980
ag228
ag228
ag228
ag228
ag228
ag980
asS'Dec_gal'
p983
(lp984
S'71.59894'
p985
aS'-30.27489'
p986
aS'0.11503'
p987
aS'60.99017'
p988
ag71
aS'37.01481'
p989
aS'-23.2455'
p990
aS'-20.167'
p991
aS'0.11503'
p992
aS'51.92'
p993
ag71
aS'0.10978'
p994
aS'58.17656'
p995
aS'16.14542'
p996
aS'14.02897'
p997
aS'6.09868'
p998
aS'-10.32'
p999
ag71
aS'-49.33172'
p1000
aS'-41.73083'
p1001
aS'-30.65583'
p1002
aS'75.74151'
p1003
aS'30.69498'
p1004
ag71
aS'56.32877'
p1005
aS'51.92'
p1006
aS'51.92'
p1007
ag71
ag71
aS'33.12353'
p1008
ag71
aS'27.95999'
p1009
aS'-30.27489'
p1010
aS'3.99188'
p1011
aS'11.10771'
p1012
aS'5.01447'
p1013
aS'2.82711'
p1014
ag71
aS'0.11503'
p1015
aS'45.54962'
p1016
aS'55.67411'
p1017
aS'3.23483'
p1018
aS'28.08866'
p1019
aS'51.92'
p1020
aS'65.39056'
p1021
aS'25.14642'
p1022
aS'5.33222'
p1023
aS'60.46617'
p1024
ag71
aS'28.3493'
p1025
aS'-7.66188'
p1026
aS'3.23483'
p1027
aS'-41.73083'
p1028
aS'-56.97475'
p1029
aS'-54.60228'
p1030
aS'-53.01264'
p1031
ag71
aS'-54.41683'
p1032
aS'12.30639'
p1033
aS'3.58561'
p1034
ag71
aS'1.69874'
p1035
asS'inclination'
p1036
(lp1037
S'53'
p1038
aS'57'
p1039
aS'81'
p1040
aS'76'
p1041
ag71
aS'60'
p1042
aS'30'
p1043
aS'51'
p1044
aS'81'
p1045
aS'-99'
p1046
ag71
aS'36'
p1047
aS'78'
p1048
aS'60'
p1049
aS'75'
p1050
aS'61'
p1051
ag228
ag71
aS'78'
p1052
aS'30'
p1053
aS'57'
p1054
aS'45'
p1055
aS'87'
p1056
ag71
aS'81'
p1057
aS'-99'
p1058
aS'-99'
p1059
ag71
ag71
aS'75'
p1060
ag71
aS'62'
p1061
aS'57'
p1062
aS'41'
p1063
aS'70'
p1064
aS'55'
p1065
aS'80'
p1066
ag71
aS'81'
p1067
aS'70'
p1068
aS'76'
p1069
aS'37'
p1070
aS'70'
p1071
aS'-99'
p1072
aS'44'
p1073
aS'62'
p1074
aS'48'
p1075
aS'85'
p1076
ag71
aS'52'
p1077
aS'50'
p1078
aS'37'
p1079
aS'30'
p1080
aS'24'
p1081
aS'62'
p1082
aS'77'
p1083
ag71
aS'78'
p1084
aS'41'
p1085
aS'69'
p1086
ag71
aS'85'
p1087
asS'vel_diff'
p1088
(lp1089
S'17'
p1090
aS'32'
p1091
aS'115'
p1092
aS'-62'
p1093
ag71
aS'85'
p1094
aS'6'
p1095
aS'-151'
p1096
aS'-360'
p1097
aS'-178'
p1098
ag71
aS'113'
p1099
aS'-287'
p1100
aS'217'
p1101
aS'200'
p1102
aS'55'
p1103
aS'-103'
p1104
ag71
aS'-34'
p1105
aS'-172'
p1106
aS'-5'
p1107
aS'-219'
p1108
aS'59'
p1109
ag71
aS'-39'
p1110
aS'347'
p1111
aS'-347'
p1112
ag71
ag71
aS'-14'
p1113
ag71
aS'12'
p1114
aS'50'
p1115
aS'-61'
p1116
aS'238'
p1117
aS'117'
p1118
aS'-9'
p1119
ag71
ag980
aS'31'
p1120
aS'14'
p1121
aS'249'
p1122
aS'34'
p1123
aS'-301'
p1124
aS'-29'
p1125
aS'46'
p1126
aS'-339'
p1127
aS'43'
p1128
ag71
aS'-231'
p1129
aS'44'
p1130
aS'-173'
p1131
aS'25'
p1132
aS'-34'
p1133
aS'-104'
p1134
aS'166'
p1135
ag71
aS'369'
p1136
aS'-328'
p1137
aS'315'
p1138
ag71
aS'-28'
p1139
asS'vlimits'
p1140
(lp1141
(I2760
I2960
tp1142
a(I1145
I1339
tp1143
a(I910
I1116
tp1144
a(I3372
I3520
tp1145
a(I4282
I4324
tp1146
a(I886
I984
tp1147
a(I1056
I1298
tp1148
a(I1563
I1651
tp1149
a(I1440
I1550
tp1150
a(I1235
I1325
tp1151
a(I2202
I2330
tp1152
a(I5604
I5706
tp1153
a(I698
I810
tp1154
a(I810
I896
tp1155
a(I2044
I2162
tp1156
a(I1461
I2345
tp1157
a(I1242
I1394
tp1158
a(I8210
I8296
tp1159
a(I4885
I5023
tp1160
a(I1785
I1899
tp1161
a(I8832
I9110
tp1162
a(I1322
I1374
tp1163
a(I1654
I1810
tp1164
a(I7124
I7264
tp1165
a(I631
I757
tp1166
a(I687
I809
tp1167
a(I1410
I1488
tp1168
a(I6074
I6254
tp1169
a(I1470
I1582
tp1170
a(I1854
I2048
tp1171
a(I4820
I4902
tp1172
a(I715
I873
tp1173
a(I1175
I1243
tp1174
a(I2884
I2966
tp1175
a(I825
I901
tp1176
a(I1095
I1161
tp1177
a(I3977
I4123
tp1178
a(I2216
I2286
tp1179
a(I1028
I1218
tp1180
a(I584
I662
tp1181
a(I593
I765
tp1182
a(I977
I1111
tp1183
a(I2058
I2152
tp1184
a(I1379
I1421
tp1185
a(I830
I1030
tp1186
a(I2117
I2233
tp1187
a(I611
I669
tp1188
a(I2123
I2257
tp1189
a(I4662
I4874
tp1190
a(I1686
I1782
tp1191
a(I4624
I4804
tp1192
a(I1438
I1504
tp1193
a(I1555
I1641
tp1194
a(I990
I1100
tp1195
a(I1124
I1200
tp1196
a(I1450
I1570
tp1197
a(I5049
I5153
tp1198
a(I559
I675
tp1199
a(I506
I676
tp1200
a(I2276
I2300
tp1201
a(I1988
I2058
tp1202
a(I1954
I2120
tp1203
asS'minorAxis'
p1204
(lp1205
S'16.1'
p1206
aS'27.8'
p1207
aS'5.8'
p1208
aS'9.4'
p1209
ag71
aS'7.8'
p1210
aS'19.2'
p1211
aS'4.9'
p1212
aS'5.8'
p1213
aS'-99.99'
p1214
ag71
aS'19.9'
p1215
ag228
aS'16.7'
p1216
aS'5.9'
p1217
aS'16.4'
p1218
aS'15.6'
p1219
ag71
aS'5.2'
p1220
aS'0.6'
p1221
aS'18.7'
p1222
aS'4.7'
p1223
ag228
ag71
aS'8.1'
p1224
aS'-99.99'
p1225
aS'-99.99'
p1226
ag71
ag71
aS'5.6'
p1227
ag71
aS'10.5'
p1228
aS'27.8'
p1229
aS'17.1'
p1230
aS'11.4'
p1231
aS'19'
p1232
aS'6.6'
p1233
ag71
aS'5.8'
p1234
aS'11.1'
p1235
aS'6.3'
p1236
aS'22.2'
p1237
aS'6.4'
p1238
aS'-99.99'
p1239
aS'4.8'
p1240
aS'1.7'
p1241
aS'1.5'
p1242
aS'0.6'
p1243
ag71
aS'1.3'
p1244
aS'11.2'
p1245
aS'22.2'
p1246
aS'0.6'
p1247
aS'24.6'
p1248
aS'10.3'
p1249
aS'3.3'
p1250
ag71
aS'1.8'
p1251
aS'0.6'
p1252
aS'6.5'
p1253
ag71
aS'1.9'
p1254
asS'spectrumStatus'
p1255
(lp1256
g71
ag71
ag71
ag71
ag71
ag71
ag71
ag71
ag71
ag71
ag71
ag71
ag71
ag71
ag71
ag71
ag71
ag71
ag71
ag71
ag71
ag71
ag71
ag71
ag71
ag71
ag71
ag71
ag71
ag71
ag71
ag71
ag71
ag71
ag71
ag71
ag71
ag71
ag71
ag71
ag71
ag71
ag71
ag71
ag71
ag71
ag71
ag71
ag71
ag71
ag71
ag71
ag71
ag71
ag71
ag71
ag71
ag71
ag71
ag71
ag71
ag71
asS'majorAxis'
p1257
(lp1258
S'26.8'
p1259
aS'50.6'
p1260
aS'36.4'
p1261
aS'39'
p1262
ag71
aS'15.6'
p1263
aS'22.1'
p1264
aS'7.8'
p1265
aS'36.4'
p1266
aS'-99.99'
p1267
ag71
aS'24.6'
p1268
aS'0.2'
p1269
aS'33.4'
p1270
aS'22.9'
p1271
aS'34.2'
p1272
aS'15.6'
p1273
ag71
aS'24.7'
p1274
aS'0.7'
p1275
aS'34.6'
p1276
aS'6.6'
p1277
aS'0.5'
p1278
ag71
aS'50.6'
p1279
aS'-99.99'
p1280
aS'-99.99'
p1281
ag71
ag71
aS'21.5'
p1282
ag71
aS'22.3'
p1283
aS'50.6'
p1284
aS'22.9'
p1285
aS'33.5'
p1286
aS'33.4'
p1287
aS'36.9'
p1288
ag71
aS'36.4'
p1289
aS'31.7'
p1290
aS'25.3'
p1291
aS'27.7'
p1292
aS'18.8'
p1293
aS'-99.99'
p1294
aS'6.7'
p1295
aS'3.6'
p1296
aS'2.3'
p1297
aS'8'
p1298
ag71
aS'2.1'
p1299
aS'17.4'
p1300
aS'27.7'
p1301
aS'0.7'
p1302
aS'27'
p1303
aS'21.9'
p1304
aS'14.5'
p1305
ag71
aS'8.6'
p1306
aS'0.8'
p1307
aS'18.1'
p1308
ag71
aS'20.9'
p1309
asS'likelihood'
p1310
(lp1311
S'0.2430525'
p1312
aS'1.732971136'
p1313
aS'0.034016588'
p1314
aS'0.010483529'
p1315
aS'-99'
p1316
aS'0.992784342'
p1317
aS'1.689228413'
p1318
aS'3.44E-16'
p1319
aS'0.014109701'
p1320
aS'-99.99'
p1321
aS'-99'
p1322
aS'0.000260608'
p1323
ag228
aS'0.111192184'
p1324
aS'0.319579216'
p1325
aS'0.035743674'
p1326
aS'3.66E-06'
p1327
aS'-99'
p1328
aS'0.000134393'
p1329
aS'1.28E-181'
p1330
aS'0.246044235'
p1331
aS'3.04E-25'
p1332
ag228
aS'-99'
p1333
aS'0.07779033'
p1334
aS'-99.99'
p1335
aS'-99.99'
p1336
aS'-99'
p1337
aS'-99'
p1338
aS'0.032403958'
p1339
aS'-99'
p1340
aS'0.303410192'
p1341
aS'1.19601977'
p1342
aS'0.000317806'
p1343
aS'0.007643085'
p1344
aS'0.699889074'
p1345
aS'1.497539531'
p1346
aS'-99'
p1347
aS'1.51544695'
p1348
aS'0.020893404'
p1349
aS'0.001064363'
p1350
aS'0.239719272'
p1351
aS'0.000272032'
p1352
aS'-99.99'
p1353
aS'0.045560079'
p1354
aS'3.10E-20'
p1355
aS'0.052953225'
p1356
aS'1.29E-19'
p1357
aS'-99'
p1358
aS'1.60E-124'
p1359
aS'0.009374021'
p1360
aS'0.769889264'
p1361
aS'0.064775913'
p1362
aS'0.240659216'
p1363
aS'0.059815905'
p1364
aS'0.040903935'
p1365
aS'-99'
p1366
aS'2.78E-17'
p1367
ag228
aS'1.83E-07'
p1368
aS'-99'
p1369
aS'0.943545639'
p1370
asS'RC3flag'
p1371
(lp1372
S'106.7'
p1373
aS'559.95'
p1374
aS'628.28'
p1375
aS'119.72'
p1376
ag71
aS'137.45'
p1377
aS'169.1'
p1378
aS'92.93'
p1379
aS'628.28'
p1380
aS'-99.99'
p1381
ag71
aS'-99.99'
p1382
aS'-99.99'
p1383
aS'329.72'
p1384
aS'134.32'
p1385
aS'161.49'
p1386
aS'177.07'
p1387
ag71
aS'79.1'
p1388
aS'99.58'
p1389
aS'-99.99'
p1390
aS'58.63'
p1391
aS'-99.99'
p1392
ag71
aS'755.36'
p1393
aS'-99.99'
p1394
aS'-99.99'
p1395
ag71
ag71
aS'228.11'
p1396
ag71
aS'642.91'
p1397
aS'559.95'
p1398
aS'101.89'
p1399
aS'337.4'
p1400
aS'405.65'
p1401
aS'104.27'
p1402
ag71
aS'628.28'
p1403
aS'510.68'
p1404
aS'522.58'
p1405
aS'238.86'
p1406
aS'77.29'
p1407
aS'-99.99'
p1408
aS'378.57'
p1409
aS'-99.99'
p1410
aS'307.72'
p1411
aS'-99.99'
p1412
ag71
aS'-99.99'
p1413
aS'-99.99'
p1414
aS'238.86'
p1415
aS'99.58'
p1416
aS'203.31'
p1417
aS'255.95'
p1418
aS'116.99'
p1419
ag71
aS'143.93'
p1420
aS'586.34'
p1421
aS'72.14'
p1422
ag71
aS'147.28'
p1423
asS'RC3inc'
p1424
(lp1425
S'0.6'
p1426
aS'0.62'
p1427
aS'-99.99'
p1428
aS'-99.99'
p1429
ag71
aS'-99.99'
p1430
aS'0.83'
p1431
aS'0.59'
p1432
aS'0.36'
p1433
aS'-99.99'
p1434
ag71
aS'-99.99'
p1435
aS'-99.99'
p1436
aS'-99.99'
p1437
aS'-99.99'
p1438
aS'0.47'
p1439
aS'-99.99'
p1440
ag71
aS'0.21'
p1441
aS'0.83'
p1442
aS'-99.99'
p1443
aS'0.78'
p1444
aS'-99.99'
p1445
ag71
aS'-99.99'
p1446
aS'-99.99'
p1447
aS'-99.99'
p1448
ag71
ag71
aS'-99.99'
p1449
ag71
aS'-99.99'
p1450
aS'0.56'
p1451
aS'0.89'
p1452
aS'-99.99'
p1453
aS'-99.99'
p1454
aS'0.13'
p1455
ag71
aS'0.66'
p1456
aS'-99.99'
p1457
aS'-99.99'
p1458
aS'-99.99'
p1459
aS'0.26'
p1460
aS'-99.99'
p1461
aS'-99.99'
p1462
aS'-99.99'
p1463
aS'0.65'
p1464
aS'-99.99'
p1465
ag71
aS'-99.99'
p1466
aS'-99.99'
p1467
ag980
aS'0.83'
p1468
aS'-99.99'
p1469
aS'0.26'
p1470
aS'0.74'
p1471
ag71
aS'0.21'
p1472
aS'0.83'
p1473
aS'-99.99'
p1474
ag71
aS'0.09'
p1475
asS'radialVelocity'
p1476
(lp1477
S'2887'
p1478
aS'1271'
p1479
aS'1128'
p1480
aS'3419'
p1481
ag71
aS'1051'
p1482
aS'1194'
p1483
aS'1474'
p1484
aS'1128'
p1485
aS'1101'
p1486
ag71
aS'5807'
p1487
aS'471'
p1488
aS'1050'
p1489
aS'2316'
p1490
aS'1958'
p1491
aS'1210'
p1492
ag71
aS'4933'
p1493
aS'1623'
p1494
aS'8961'
p1495
aS'1120'
p1496
aS'1799'
p1497
ag71
aS'667'
p1498
aS'1101'
p1499
aS'1101'
p1500
ag71
ag71
aS'1947'
p1501
ag71
aS'807'
p1502
aS'1271'
p1503
aS'2863'
p1504
aS'1104'
p1505
aS'1241'
p1506
aS'4074'
p1507
ag71
aS'1128'
p1508
aS'660'
p1509
aS'699'
p1510
aS'1298'
p1511
aS'2145'
p1512
aS'1101'
p1513
aS'910'
p1514
aS'2229'
p1515
aS'301'
p1516
aS'2241'
p1517
ag71
aS'1496'
p1518
aS'4800'
p1519
aS'1298'
p1520
aS'1623'
p1521
aS'1041'
p1522
aS'1063'
p1523
aS'1678'
p1524
ag71
aS'982'
p1525
aS'285'
p1526
aS'2600'
p1527
ag71
aS'2023'
p1528
asS'b'
p1529
(lp1530
F57.1
aF62.9
aF44.5
aF49.0
aF15.6
aF30.6
aF69.4
aF30.0
aF29.0
aF30.3
aF42.1
aF35.3
aF39.4
aF30.0
aF41.8
aF230.0
aF35.8
aF27.2
aF41.4
aF47.9
aF76.8
aF18.7
aF53.7
aF43.1
aF42.1
aF44.9
aF27.5
aF50.2
aF30.2
aF55.0
aF29.7
aF47.1
aF23.6
aF24.4
aF23.0
aF23.0
aF50.1
aF29.0
aF51.0
aF27.9
aF47.5
aF40.9
aF31.9
aF16.2
aF57.4
aF33.5
aF20.2
aF38.1
aF72.5
aF37.7
aF56.7
aF25.2
aF29.0
aF28.2
aF25.8
aF37.9
aF36.8
aF39.4
aF61.3
aF8.4
aF28.2
aF57.4
asS'center'
p1531
(lp1532
I2870
aI1239
aI1013
aI3481
aI4303
aI966
aI1188
aI1625
aI1488
aI1279
aI2258
aI5694
aI758
aI833
aI2116
aI1903
aI1313
aI8263
aI4967
aI1795
aI8966
aI1339
aI1740
aI7205
aI706
aI754
aI1448
aI6172
aI1521
aI1961
aI4869
aI795
aI1221
aI2924
aI866
aI1124
aI4083
aI2241
aI1127
aI629
aI685
aI1049
aI2111
aI1402
aI939
aI2183
aI640
aI2198
aI4762
aI1727
aI4756
aI1471
aI1598
aI1075
aI1167
aI1512
aI5111
aI613
aI613
aI2285
aI2028
aI2051
asS'galaxyRedshift'
p1533
(lp1534
S'0.00963'
p1535
aS'0.00424'
p1536
aS'0.003764'
p1537
aS'0.011405'
p1538
ag71
aS'0.003506'
p1539
aS'0.003983'
p1540
aS'0.004917'
p1541
aS'0.003764'
p1542
aS'0.003673'
p1543
ag71
aS'0.01937'
p1544
aS'0.001572'
p1545
aS'0.003502'
p1546
aS'0.007725'
p1547
aS'0.006531'
p1548
aS'0.004037'
p1549
ag71
aS'0.016455'
p1550
aS'0.005414'
p1551
aS'0.029891'
p1552
aS'0.003736'
p1553
aS'0.006'
p1554
ag71
aS'0.002225'
p1555
aS'0.003673'
p1556
aS'0.003673'
p1557
ag71
ag71
aS'0.006494'
p1558
ag71
aS'0.002692'
p1559
aS'0.00424'
p1560
aS'0.00955'
p1561
aS'0.003683'
p1562
aS'0.00414'
p1563
aS'0.013589'
p1564
ag71
aS'0.003764'
p1565
aS'0.002202'
p1566
aS'0.002332'
p1567
aS'0.00433'
p1568
aS'0.007155'
p1569
aS'0.003673'
p1570
aS'0.003035'
p1571
aS'0.007436'
p1572
aS'0.001004'
p1573
aS'0.007476'
p1574
ag71
aS'0.004991'
p1575
aS'0.016011'
p1576
aS'0.00433'
p1577
aS'0.005414'
p1578
aS'0.003472'
p1579
aS'0.003546'
p1580
aS'0.005597'
p1581
ag71
aS'0.003276'
p1582
aS'0.000951'
p1583
aS'0.008673'
p1584
ag71
aS'0.006748'
p1585
asS'identified'
p1586
(lp1587
S'd:Lya'
p1588
aS'done'
p1589
aS'Lya'
p1590
aS'Lya'
p1591
aS'd:X'
p1592
aS'f:Lya, working'
p1593
aS'd:Lya'
p1594
aS'd:Lya'
p1595
aS'd:Lya,Lya'
p1596
aS'd:Lya'
p1597
aS'Lya, d:Lya'
p1598
aS'd:Lya'
p1599
aS'done'
p1600
aS'd:Lya'
p1601
aS'Lya'
p1602
aS'd:Lya, Lya'
p1603
aS'Lya, d:Lya'
p1604
aS'd:Lya, Lya'
p1605
aS'done'
p1606
aS'd:Lya, Lya'
p1607
aS'Lya'
p1608
aS'done'
p1609
aS'f:Lya'
p1610
aS'Lya'
p1611
aS'Lya'
p1612
aS'Lya'
p1613
aS'done'
p1614
aS'done'
p1615
aS'working'
p1616
aS'Lya'
p1617
aS'Lya'
p1618
aS'Lya'
p1619
aS'Lya'
p1620
aS'Lya'
p1621
aS'Lya'
p1622
aS'Lya'
p1623
aS'Lya'
p1624
aS'Lya'
p1625
aS'Lya'
p1626
aS'Lya'
p1627
aS'Lya'
p1628
aS'Lya'
p1629
aS'Lya'
p1630
aS'Lya'
p1631
aS'Lya, d:Lya'
p1632
aS'Lya'
p1633
aS'Lya'
p1634
aS'Lya'
p1635
aS'Lya'
p1636
aS'Lya'
p1637
aS'f:Lya'
p1638
aS'Lya'
p1639
aS'Lya'
p1640
aS'Lya'
p1641
aS'Lya'
p1642
aS'Lya'
p1643
aS'Lya'
p1644
aS'Lya'
p1645
aS'Lya'
p1646
aS'Lya'
p1647
aS'Lya'
p1648
aS'Lya'
p1649
asS'distGalaxy'
p1650
(lp1651
S'43.7'
p1652
aS'16'
p1653
aS'9.7'
p1654
aS'56.2'
p1655
ag71
aS'21.7'
p1656
aS'13.9'
p1657
aS'17.18'
p1658
aS'9.7'
p1659
aS'0.1'
p1660
ag71
aS'78'
p1661
aS'9.06'
p1662
aS'17.2'
p1663
aS'41.4'
p1664
aS'37.7'
p1665
aS'21.7'
p1666
ag71
aS'54.1'
p1667
ag980
aS'122.21'
p1668
aS'16.9'
p1669
aS'29.22'
p1670
ag71
aS'14.9'
p1671
aS'0.1'
p1672
aS'0.1'
p1673
ag71
ag71
aS'29.2'
p1674
ag71
aS'7.3'
p1675
aS'16'
p1676
aS'42.3'
p1677
aS'15.8'
p1678
aS'18.1'
p1679
aS'68.9'
p1680
ag71
aS'9.7'
p1681
aS'13.7'
p1682
aS'8.67'
p1683
aS'22.7'
p1684
aS'47.5'
p1685
aS'0.1'
p1686
aS'8.13'
p1687
aS'33.75'
p1688
aS'1.42'
p1689
aS'32.2'
p1690
ag71
aS'24'
p1691
aS'63.82'
p1692
aS'22.7'
p1693
ag980
aS'19.3'
p1694
aS'13.4'
p1695
aS'23.9'
p1696
ag71
aS'15'
p1697
aS'0.25'
p1698
aS'41.2'
p1699
ag71
aS'26.4'
p1700
asS'AGNsn'
p1701
(lp1702
g71
ag71
ag71
ag71
ag71
ag71
ag71
ag71
ag71
ag71
ag71
ag71
ag71
ag71
ag71
ag71
ag71
ag71
ag71
ag71
ag71
ag71
ag71
ag71
ag71
ag71
ag71
ag71
ag71
ag71
ag71
ag71
ag71
ag71
ag71
ag71
ag71
ag71
ag71
ag71
ag71
ag71
ag71
ag71
ag71
ag71
ag71
ag71
ag71
ag71
ag71
ag71
ag71
ag71
ag71
ag71
ag71
ag71
ag71
ag71
ag71
ag71
asS'azimuth'
p1703
(lp1704
S'7.1'
p1705
aS'26.7'
p1706
aS'71.8'
p1707
aS'12'
p1708
ag71
aS'36.1'
p1709
aS'67.4'
p1710
aS'16.9'
p1711
aS'74.1'
p1712
aS'68.5'
p1713
ag71
aS'57.4'
p1714
aS'19.1'
p1715
aS'46.6'
p1716
aS'22.6'
p1717
aS'45.6'
p1718
aS'3.7'
p1719
ag71
aS'19.3'
p1720
aS'33.7'
p1721
aS'10.3'
p1722
aS'76.3'
p1723
aS'84'
p1724
ag71
aS'46.8'
p1725
aS'0.6'
p1726
aS'43.1'
p1727
ag71
ag71
aS'40.6'
p1728
ag71
aS'30.9'
p1729
aS'77.4'
p1730
aS'71.3'
p1731
aS'52.6'
p1732
aS'84.3'
p1733
aS'69'
p1734
ag71
aS'89.9'
p1735
aS'55.3'
p1736
aS'77.7'
p1737
aS'21.6'
p1738
aS'23.8'
p1739
aS'26.8'
p1740
aS'54.5'
p1741
aS'0.5'
p1742
aS'13.9'
p1743
aS'89.1'
p1744
ag71
aS'85.8'
p1745
aS'29.5'
p1746
aS'88.7'
p1747
aS'11.7'
p1748
aS'67.5'
p1749
aS'64.5'
p1750
aS'66.5'
p1751
ag71
aS'69.8'
p1752
aS'44.3'
p1753
aS'77.9'
p1754
ag71
aS'89.6'
p1755
asS'RC3pa'
p1756
(lp1757
S'13'
p1758
aS'130'
p1759
aS'83'
p1760
aS'69'
p1761
ag71
aS'-99'
p1762
aS'75'
p1763
aS'35'
p1764
aS'83'
p1765
aS'-99'
p1766
ag71
aS'-99'
p1767
aS'-99'
p1768
aS'135'
p1769
aS'122'
p1770
aS'58'
p1771
aS'-99'
p1772
ag71
aS'12'
p1773
aS'-99'
p1774
aS'-99'
p1775
aS'-99'
p1776
aS'-99'
p1777
ag71
aS'155'
p1778
aS'-99'
p1779
aS'-99'
p1780
ag71
ag71
aS'148'
p1781
ag71
aS'150'
p1782
aS'130'
p1783
aS'-99'
p1784
aS'99'
p1785
aS'30'
p1786
aS'61'
p1787
ag71
aS'83'
p1788
aS'35'
p1789
aS'80'
p1790
aS'100'
p1791
aS'171'
p1792
aS'-99'
p1793
aS'95'
p1794
aS'-99'
p1795
aS'110'
p1796
aS'-99'
p1797
ag71
aS'-99'
p1798
aS'-99'
p1799
aS'100'
p1800
aS'-99'
p1801
aS'35'
p1802
aS'107'
p1803
aS'28'
p1804
ag71
aS'101'
p1805
aS'80'
p1806
aS'72'
p1807
ag71
aS'57'
p1808
asS'vcorr'
p1809
(lp1810
S'2973'
p1811
aS'1030'
p1812
aS'1420'
p1813
aS'3526'
p1814
ag71
aS'1324'
p1815
aS'1419'
p1816
aS'1220'
p1817
aS'1420'
p1818
aS'1313'
p1819
ag71
aS'5538'
p1820
aS'644'
p1821
aS'789'
p1822
aS'2616'
p1823
aS'2256'
p1824
aS'1481'
p1825
ag71
aS'4800'
p1826
aS'1369'
p1827
aS'8677'
p1828
aS'1200'
p1829
aS'2075'
p1830
ag71
aS'843'
p1831
aS'1313'
p1832
aS'1313'
p1833
ag71
ag71
aS'2143'
p1834
ag71
aS'1097'
p1835
aS'1030'
p1836
aS'3156'
p1837
aS'1404'
p1838
aS'1516'
p1839
aS'3860'
p1840
ag71
aS'1420'
p1841
aS'882'
p1842
aS'910'
p1843
aS'1582'
p1844
aS'2344'
p1845
aS'1313'
p1846
aS'1035'
p1847
aS'2396'
p1848
aS'540'
p1849
aS'2417'
p1850
ag71
aS'1704'
p1851
aS'4532'
p1852
aS'1582'
p1853
aS'1369'
p1854
aS'902'
p1855
aS'926'
p1856
aS'1545'
p1857
ag71
aS'845'
p1858
aS'534'
p1859
aS'2884'
p1860
ag71
aS'2245'
p1861
as.